target datalayout = "e-m:e-p270:32:32-p271:32:32-p272:64:64-i64:64-i128:128-f80:128-n8:16:32:64-S128"
target triple = "x86_64-pc-linux-gnu"

%struct.Agobj_s = type { %struct.Agtag_s, ptr }
%struct.Agtag_s = type { i32, i64 }
%struct.Agrec_s = type { ptr, ptr }
%struct.boxf = type { %struct.pointf_s, %struct.pointf_s }
%struct.pointf_s = type { double, double }
%struct.Agnodeinfo_t = type { %struct.Agrec_s, ptr, ptr, %struct.pointf_s, double, double, %struct.boxf, double, double, double, double, double, ptr, ptr, ptr, i8, i8, i8, i8, i32, i32, i32, ptr, double, i8, i8, ptr, ptr, i8, i64, i8, i8, i8, ptr, ptr, %struct.elist, %struct.elist, %struct.elist, %struct.elist, %struct.elist, ptr, i32, ptr, i32, i32, double, %struct.elist, %struct.elist, %struct.elist, %struct.elist, ptr, i32, i32, i32, [1 x double] }
%struct.elist = type { ptr, i64 }
%struct.Agedge_s = type { %struct.Agobj_s, %struct.dtlink_s_, %struct.dtlink_s_, ptr }
%struct.dtlink_s_ = type { ptr, %union.anon }
%union.anon = type { ptr }

; Function Attrs: nounwind uwtable
define internal zeroext i1 @go(ptr noundef %0, ptr noundef %1) #0 {
  %3 = alloca i1, align 1
  %4 = alloca ptr, align 8
  %5 = alloca ptr, align 8
  %6 = alloca i32, align 4
  %7 = alloca ptr, align 8
  %8 = alloca i32, align 4
  store ptr %0, ptr %4, align 8, !tbaa !46
  store ptr %1, ptr %5, align 8, !tbaa !46
  call void @llvm.lifetime.start.p0(i64 4, ptr %6) #11
  call void @llvm.lifetime.start.p0(i64 8, ptr %7) #11
  %9 = load ptr, ptr %4, align 8, !tbaa !46
  %10 = load ptr, ptr %5, align 8, !tbaa !46
  %11 = icmp eq ptr %9, %10
  br i1 %11, label %12, label %13

12:                                               ; preds = %2
  store i1 true, ptr %3, align 1
  store i32 1, ptr %8, align 4
  br label %49

13:                                               ; preds = %2
  store i32 0, ptr %6, align 4, !tbaa !36
  br label %14

14:                                               ; preds = %45, %13
  %15 = load ptr, ptr %4, align 8, !tbaa !46
  %16 = getelementptr inbounds nuw %struct.Agobj_s, ptr %15, i32 0, i32 1
  %17 = load ptr, ptr %16, align 8, !tbaa !8
  %18 = getelementptr inbounds nuw %struct.Agnodeinfo_t, ptr %17, i32 0, i32 36
  %19 = getelementptr inbounds nuw %struct.elist, ptr %18, i32 0, i32 0
  %20 = load ptr, ptr %19, align 8, !tbaa !117
  %21 = load i32, ptr %6, align 4, !tbaa !36
  %22 = sext i32 %21 to i64
  %23 = getelementptr inbounds ptr, ptr %20, i64 %22
  %24 = load ptr, ptr %23, align 8, !tbaa !55
  store ptr %24, ptr %7, align 8, !tbaa !55
  %25 = icmp ne ptr %24, null
  br i1 %25, label %26, label %48

26:                                               ; preds = %14
  %27 = load ptr, ptr %7, align 8, !tbaa !55
  %28 = getelementptr inbounds nuw %struct.Agobj_s, ptr %27, i32 0, i32 0
  %29 = load i32, ptr %28, align 8
  %30 = and i32 %29, 3
  %31 = icmp eq i32 %30, 2
  br i1 %31, label %32, label %34

32:                                               ; preds = %26
  %33 = load ptr, ptr %7, align 8, !tbaa !55
  br label %37

34:                                               ; preds = %26
  %35 = load ptr, ptr %7, align 8, !tbaa !55
  %36 = getelementptr inbounds %struct.Agedge_s, ptr %35, i64 -1
  br label %37

37:                                               ; preds = %34, %32
  %38 = phi ptr [ %33, %32 ], [ %36, %34 ]
  %39 = getelementptr inbounds nuw %struct.Agedge_s, ptr %38, i32 0, i32 3
  %40 = load ptr, ptr %39, align 8, !tbaa !56
  %41 = load ptr, ptr %5, align 8, !tbaa !46
  %42 = call zeroext i1 @go(ptr noundef %40, ptr noundef %41)
  br i1 %42, label %43, label %44

43:                                               ; preds = %37
  store i1 true, ptr %3, align 1
  store i32 1, ptr %8, align 4
  br label %49

44:                                               ; preds = %37
  br label %45

45:                                               ; preds = %44
  %46 = load i32, ptr %6, align 4, !tbaa !36
  %47 = add nsw i32 %46, 1
  store i32 %47, ptr %6, align 4, !tbaa !36
  br label %14, !llvm.loop !176

48:                                               ; preds = %14
  store i1 false, ptr %3, align 1
  store i32 1, ptr %8, align 4
  br label %49

49:                                               ; preds = %48, %43, %12
  call void @llvm.lifetime.end.p0(i64 8, ptr %7) #11
  call void @llvm.lifetime.end.p0(i64 4, ptr %6) #11
  %50 = load i1, ptr %3, align 1
  ret i1 %50
}