; Function Attrs: nofree nosync nounwind memory(read, inaccessiblemem: none) uwtable
define internal fastcc noundef zeroext i1 @go(ptr noundef readonly captures(address) %0, ptr noundef captures(address) %1) unnamed_addr #10 {
  %3 = icmp eq ptr %0, %1
  br i1 %3, label %.loopexit, label %.preheader

.preheader:                                       ; preds = %2
  %4 = getelementptr inbounds nuw i8, ptr %0, i64 16
  %5 = load ptr, ptr %4, align 8, !tbaa !3
  %6 = getelementptr inbounds nuw i8, ptr %5, i64 272
  %7 = load ptr, ptr %6, align 8, !tbaa !61
  %8 = load ptr, ptr %7, align 8, !tbaa !62
  %.not13 = icmp eq ptr %8, null
  br i1 %.not13, label %.loopexit, label %.lr.ph

9:                                                ; preds = %.lr.ph
  %indvars.iv.next = add nuw nsw i64 %indvars.iv, 1
  %10 = getelementptr inbounds nuw ptr, ptr %7, i64 %indvars.iv.next
  %11 = load ptr, ptr %10, align 8, !tbaa !62
  %.not = icmp eq ptr %11, null
  br i1 %.not, label %.loopexit, label %.lr.ph, !llvm.loop !164

.lr.ph:                                           ; preds = %.preheader, %9
  %indvars.iv = phi i64 [ %indvars.iv.next, %9 ], [ 0, %.preheader ]
  %12 = phi ptr [ %11, %9 ], [ %8, %.preheader ]
  %13 = load i32, ptr %12, align 8
  %14 = and i32 %13, 3
  %15 = icmp eq i32 %14, 2
  %.idx = select i1 %15, i64 0, i64 -64
  %16 = getelementptr inbounds i8, ptr %12, i64 %.idx
  %17 = getelementptr inbounds nuw i8, ptr %16, i64 56
  %18 = load ptr, ptr %17, align 8, !tbaa !86
  %19 = tail call fastcc zeroext i1 @go(ptr noundef %18, ptr noundef %1)
  br i1 %19, label %.loopexit, label %9

.loopexit:                                        ; preds = %.lr.ph, %9, %.preheader, %2
  %.0 = phi i1 [ true, %2 ], [ false, %.preheader ], [ %19, %9 ], [ %19, %.lr.ph ]
  ret i1 %.0
}